; Function Attrs: nofree nosync nounwind memory(read, inaccessiblemem: none) uwtable
define range(i32 -2147483646, -2147483648) i32 @Kit_GraphLevelNum_rec(ptr noundef %0, ptr noundef %1) local_unnamed_addr #10 {
  %3 = getelementptr i8, ptr %0, i64 4
  %.val = load i32, ptr %3, align 4, !tbaa !3
  %4 = getelementptr i8, ptr %0, i64 16
  %.val12 = load ptr, ptr %4, align 8, !tbaa !13
  %5 = ptrtoint ptr %1 to i64
  %6 = ptrtoint ptr %.val12 to i64
  %7 = sub i64 %5, %6
  %8 = sdiv exact i64 %7, 24
  %9 = trunc i64 %8 to i32
  %.not = icmp sgt i32 %.val, %9
  br i1 %.not, label %common.ret18, label %Kit_GraphNodeFanin1.exit

common.ret18:                                     ; preds = %2, %Kit_GraphNodeFanin1.exit
  %common.ret18.op = phi i32 [ %24, %Kit_GraphNodeFanin1.exit ], [ 0, %2 ]
  ret i32 %common.ret18.op

Kit_GraphNodeFanin1.exit:                         ; preds = %2
  %10 = load i32, ptr %1, align 8
  %11 = lshr i32 %10, 1
  %12 = and i32 %11, 1073741823
  %13 = zext nneg i32 %12 to i64
  %14 = getelementptr inbounds nuw %struct.Kit_Node_t_, ptr %.val12, i64 %13
  %15 = tail call i32 @Kit_GraphLevelNum_rec(ptr noundef nonnull %0, ptr noundef %14)
  %16 = getelementptr inbounds nuw i8, ptr %1, i64 4
  %17 = load i32, ptr %16, align 4
  %18 = lshr i32 %17, 1
  %19 = and i32 %18, 1073741823
  %20 = zext nneg i32 %19 to i64
  %21 = getelementptr inbounds nuw %struct.Kit_Node_t_, ptr %.val12, i64 %20
  %22 = tail call i32 @Kit_GraphLevelNum_rec(ptr noundef nonnull %0, ptr noundef %21)
  %23 = tail call i32 @llvm.smax.i32(i32 %15, i32 %22)
  %24 = add nsw i32 %23, 1
  br label %common.ret18
}